; Function Attrs: mustprogress uwtable
define void @_ZN25FontColorPreferencesFrame25on_fontPushButton_clickedEv(ptr noundef nonnull align 8 dereferenceable(208) %0) local_unnamed_addr #0 align 2 personality ptr @__gxx_personality_v0 {
  %2 = alloca i8, align 1
  %3 = alloca %class.QFont, align 8
  %4 = alloca %class.QString, align 8
  %5 = alloca %class.QString, align 8
  %6 = alloca %"class.std::__cxx11::basic_string", align 8
  %7 = alloca %class.QString, align 8
  %8 = getelementptr inbounds i8, ptr %0, i64 192
  %9 = load ptr, ptr @mainApp, align 8
  call void @_ZNK11QMetaObject2trEPKcS1_i(ptr dead_on_unwind nonnull writable sret(%class.QString) align 8 %5, ptr noundef nonnull align 8 dereferenceable(56) @_ZN25FontColorPreferencesFrame16staticMetaObjectE, ptr noundef nonnull @.str.6, ptr noundef null, i32 noundef -1)
  invoke void @_ZN15MainApplication17windowTitleStringE7QString(ptr dead_on_unwind nonnull writable sret(%class.QString) align 8 %4, ptr noundef nonnull align 8 dereferenceable(216) %9, ptr noundef nonnull %5)
          to label %10 unwind label %36

10:                                               ; preds = %1
  invoke void @_ZN11QFontDialog7getFontEPbRK5QFontP7QWidgetRK7QString6QFlagsINS_16FontDialogOptionEE(ptr dead_on_unwind nonnull writable sret(%class.QFont) align 8 %3, ptr noundef nonnull %2, ptr noundef nonnull align 8 dereferenceable(12) %8, ptr noundef nonnull %0, ptr noundef nonnull align 8 dereferenceable(24) %4, i32 0)
          to label %11 unwind label %38

11:                                               ; preds = %10
  %12 = load ptr, ptr %4, align 8
  %.not.i.i.i = icmp eq ptr %12, null
  br i1 %.not.i.i.i, label %_ZN7QStringD2Ev.exit, label %_ZN17QArrayDataPointerIDsE5derefEv.exit.i.i

_ZN17QArrayDataPointerIDsE5derefEv.exit.i.i:      ; preds = %11
  %13 = atomicrmw sub ptr %12, i32 1 seq_cst, align 4
  %.not.i.i = icmp eq i32 %13, 1
  br i1 %.not.i.i, label %14, label %_ZN7QStringD2Ev.exit

14:                                               ; preds = %_ZN17QArrayDataPointerIDsE5derefEv.exit.i.i
  %15 = load ptr, ptr %4, align 8
  call void @_ZN10QArrayData10deallocateEPS_xx(ptr noundef %15, i64 noundef 2, i64 noundef 8) #16
  br label %_ZN7QStringD2Ev.exit

_ZN7QStringD2Ev.exit:                             ; preds = %11, %_ZN17QArrayDataPointerIDsE5derefEv.exit.i.i, %14
  %16 = load ptr, ptr %5, align 8
  %.not.i.i.i12 = icmp eq ptr %16, null
  br i1 %.not.i.i.i12, label %_ZN7QStringD2Ev.exit15, label %_ZN17QArrayDataPointerIDsE5derefEv.exit.i.i13

_ZN17QArrayDataPointerIDsE5derefEv.exit.i.i13:    ; preds = %_ZN7QStringD2Ev.exit
  %17 = atomicrmw sub ptr %16, i32 1 seq_cst, align 4
  %.not.i.i14 = icmp eq i32 %17, 1
  br i1 %.not.i.i14, label %18, label %_ZN7QStringD2Ev.exit15

18:                                               ; preds = %_ZN17QArrayDataPointerIDsE5derefEv.exit.i.i13
  %19 = load ptr, ptr %5, align 8
  call void @_ZN10QArrayData10deallocateEPS_xx(ptr noundef %19, i64 noundef 2, i64 noundef 8) #16
  br label %_ZN7QStringD2Ev.exit15

_ZN7QStringD2Ev.exit15:                           ; preds = %_ZN7QStringD2Ev.exit, %_ZN17QArrayDataPointerIDsE5derefEv.exit.i.i13, %18
  %20 = load i8, ptr %2, align 1
  %21 = and i8 %20, 1
  %.not = icmp eq i8 %21, 0
  br i1 %.not, label %59, label %22

22:                                               ; preds = %_ZN7QStringD2Ev.exit15
  %23 = getelementptr inbounds i8, ptr %0, i64 48
  %24 = load ptr, ptr %23, align 8
  invoke void @_ZNK5QFont8toStringEv(ptr dead_on_unwind nonnull writable sret(%class.QString) align 8 %7, ptr noundef nonnull align 8 dereferenceable(12) %3)
          to label %25 unwind label %48

25:                                               ; preds = %22
  invoke void @_ZNK7QString11toStdStringB5cxx11Ev(ptr dead_on_unwind nonnull writable sret(%"class.std::__cxx11::basic_string") align 8 %6, ptr noundef nonnull align 8 dereferenceable(24) %7)
          to label %26 unwind label %50

26:                                               ; preds = %25
  %27 = call noundef ptr @_ZNKSt7__cxx1112basic_stringIcSt11char_traitsIcESaIcEE5c_strEv(ptr noundef nonnull align 8 dereferenceable(32) %6) #16
  %28 = invoke i32 @prefs_set_string_value(ptr noundef %24, ptr noundef %27, i32 noundef 1)
          to label %29 unwind label %52

29:                                               ; preds = %26
  call void @_ZNSt7__cxx1112basic_stringIcSt11char_traitsIcESaIcEED1Ev(ptr noundef nonnull align 8 dereferenceable(32) %6) #16
  %30 = load ptr, ptr %7, align 8
  %.not.i.i.i16 = icmp eq ptr %30, null
  br i1 %.not.i.i.i16, label %_ZN7QStringD2Ev.exit19, label %_ZN17QArrayDataPointerIDsE5derefEv.exit.i.i17

_ZN17QArrayDataPointerIDsE5derefEv.exit.i.i17:    ; preds = %29
  %31 = atomicrmw sub ptr %30, i32 1 seq_cst, align 4
  %.not.i.i18 = icmp eq i32 %31, 1
  br i1 %.not.i.i18, label %32, label %_ZN7QStringD2Ev.exit19

32:                                               ; preds = %_ZN17QArrayDataPointerIDsE5derefEv.exit.i.i17
  %33 = load ptr, ptr %7, align 8
  call void @_ZN10QArrayData10deallocateEPS_xx(ptr noundef %33, i64 noundef 2, i64 noundef 8) #16
  br label %_ZN7QStringD2Ev.exit19

_ZN7QStringD2Ev.exit19:                           ; preds = %29, %_ZN17QArrayDataPointerIDsE5derefEv.exit.i.i17, %32
  %34 = invoke noundef nonnull align 8 dereferenceable(12) ptr @_ZN5QFontaSERKS_(ptr noundef nonnull align 8 dereferenceable(12) %8, ptr noundef nonnull align 8 dereferenceable(12) %3)
          to label %35 unwind label %48

35:                                               ; preds = %_ZN7QStringD2Ev.exit19
  invoke void @_ZN25FontColorPreferencesFrame13updateWidgetsEv(ptr noundef nonnull align 8 dereferenceable(208) %0)
          to label %59 unwind label %48

36:                                               ; preds = %1
  %37 = landingpad { ptr, i32 }
          cleanup
  br label %_ZN7QStringD2Ev.exit23

38:                                               ; preds = %10
  %39 = landingpad { ptr, i32 }
          cleanup
  %40 = load ptr, ptr %4, align 8
  %.not.i.i.i20 = icmp eq ptr %40, null
  br i1 %.not.i.i.i20, label %_ZN7QStringD2Ev.exit23, label %_ZN17QArrayDataPointerIDsE5derefEv.exit.i.i21

_ZN17QArrayDataPointerIDsE5derefEv.exit.i.i21:    ; preds = %38
  %41 = atomicrmw sub ptr %40, i32 1 seq_cst, align 4
  %.not.i.i22 = icmp eq i32 %41, 1
  br i1 %.not.i.i22, label %42, label %_ZN7QStringD2Ev.exit23

42:                                               ; preds = %_ZN17QArrayDataPointerIDsE5derefEv.exit.i.i21
  %43 = load ptr, ptr %4, align 8
  call void @_ZN10QArrayData10deallocateEPS_xx(ptr noundef %43, i64 noundef 2, i64 noundef 8) #16
  br label %_ZN7QStringD2Ev.exit23

_ZN7QStringD2Ev.exit23:                           ; preds = %42, %_ZN17QArrayDataPointerIDsE5derefEv.exit.i.i21, %38, %36
  %.pn = phi { ptr, i32 } [ %37, %36 ], [ %39, %38 ], [ %39, %_ZN17QArrayDataPointerIDsE5derefEv.exit.i.i21 ], [ %39, %42 ]
  %44 = load ptr, ptr %5, align 8
  %.not.i.i.i24 = icmp eq ptr %44, null
  br i1 %.not.i.i.i24, label %_ZN7QStringD2Ev.exit27, label %_ZN17QArrayDataPointerIDsE5derefEv.exit.i.i25

_ZN17QArrayDataPointerIDsE5derefEv.exit.i.i25:    ; preds = %_ZN7QStringD2Ev.exit23
  %45 = atomicrmw sub ptr %44, i32 1 seq_cst, align 4
  %.not.i.i26 = icmp eq i32 %45, 1
  br i1 %.not.i.i26, label %46, label %_ZN7QStringD2Ev.exit27

46:                                               ; preds = %_ZN17QArrayDataPointerIDsE5derefEv.exit.i.i25
  %47 = load ptr, ptr %5, align 8
  call void @_ZN10QArrayData10deallocateEPS_xx(ptr noundef %47, i64 noundef 2, i64 noundef 8) #16
  br label %_ZN7QStringD2Ev.exit27

48:                                               ; preds = %35, %_ZN7QStringD2Ev.exit19, %22
  %49 = landingpad { ptr, i32 }
          cleanup
  br label %_ZN7QStringD2Ev.exit31

50:                                               ; preds = %25
  %51 = landingpad { ptr, i32 }
          cleanup
  br label %54

52:                                               ; preds = %26
  %53 = landingpad { ptr, i32 }
          cleanup
  call void @_ZNSt7__cxx1112basic_stringIcSt11char_traitsIcESaIcEED1Ev(ptr noundef nonnull align 8 dereferenceable(32) %6) #16
  br label %54

54:                                               ; preds = %52, %50
  %.pn7 = phi { ptr, i32 } [ %53, %52 ], [ %51, %50 ]
  %55 = load ptr, ptr %7, align 8
  %.not.i.i.i28 = icmp eq ptr %55, null
  br i1 %.not.i.i.i28, label %_ZN7QStringD2Ev.exit31, label %_ZN17QArrayDataPointerIDsE5derefEv.exit.i.i29

_ZN17QArrayDataPointerIDsE5derefEv.exit.i.i29:    ; preds = %54
  %56 = atomicrmw sub ptr %55, i32 1 seq_cst, align 4
  %.not.i.i30 = icmp eq i32 %56, 1
  br i1 %.not.i.i30, label %57, label %_ZN7QStringD2Ev.exit31

57:                                               ; preds = %_ZN17QArrayDataPointerIDsE5derefEv.exit.i.i29
  %58 = load ptr, ptr %7, align 8
  call void @_ZN10QArrayData10deallocateEPS_xx(ptr noundef %58, i64 noundef 2, i64 noundef 8) #16
  br label %_ZN7QStringD2Ev.exit31

59:                                               ; preds = %35, %_ZN7QStringD2Ev.exit15
  call void @_ZN5QFontD1Ev(ptr noundef nonnull align 8 dereferenceable(12) %3) #16
  ret void

_ZN7QStringD2Ev.exit31:                           ; preds = %57, %_ZN17QArrayDataPointerIDsE5derefEv.exit.i.i29, %54, %48
  %.pn9 = phi { ptr, i32 } [ %49, %48 ], [ %.pn7, %54 ], [ %.pn7, %_ZN17QArrayDataPointerIDsE5derefEv.exit.i.i29 ], [ %.pn7, %57 ]
  call void @_ZN5QFontD1Ev(ptr noundef nonnull align 8 dereferenceable(12) %3) #16
  br label %_ZN7QStringD2Ev.exit27

_ZN7QStringD2Ev.exit27:                           ; preds = %46, %_ZN17QArrayDataPointerIDsE5derefEv.exit.i.i25, %_ZN7QStringD2Ev.exit23, %_ZN7QStringD2Ev.exit31
  %.pn9.pn = phi { ptr, i32 } [ %.pn9, %_ZN7QStringD2Ev.exit31 ], [ %.pn, %_ZN7QStringD2Ev.exit23 ], [ %.pn, %_ZN17QArrayDataPointerIDsE5derefEv.exit.i.i25 ], [ %.pn, %46 ]
  resume { ptr, i32 } %.pn9.pn
}